target datalayout = "e-m:e-p270:32:32-p271:32:32-p272:64:64-i64:64-i128:128-f80:128-n8:16:32:64-S128"
target triple = "x86_64-pc-linux-gnu"

%struct.SVG_RendererRec_ = type { %struct.FT_RendererRec_, i8, i8, %struct.SVG_RendererHooks_, ptr }
%struct.FT_RendererRec_ = type { %struct.FT_ModuleRec_, ptr, i32, %struct.FT_Glyph_Class_, ptr, ptr, ptr }
%struct.FT_ModuleRec_ = type { ptr, ptr, ptr }
%struct.FT_Glyph_Class_ = type { i64, i32, ptr, ptr, ptr, ptr, ptr, ptr }
%struct.SVG_RendererHooks_ = type { ptr, ptr, ptr, ptr }

; Function Attrs: nounwind uwtable
define internal void @ft_svg_done(ptr noundef %0) #0 {
  %2 = alloca ptr, align 8
  %3 = alloca ptr, align 8
  store ptr %0, ptr %2, align 8, !tbaa !3
  call void @llvm.lifetime.start.p0(i64 8, ptr %3) #6
  %4 = load ptr, ptr %2, align 8, !tbaa !3
  store ptr %4, ptr %3, align 8, !tbaa !8
  %5 = load ptr, ptr %3, align 8, !tbaa !8
  %6 = getelementptr inbounds nuw %struct.SVG_RendererRec_, ptr %5, i32 0, i32 1
  %7 = load i8, ptr %6, align 8, !tbaa !12
  %8 = zext i8 %7 to i32
  %9 = icmp eq i32 %8, 1
  br i1 %9, label %10, label %23

10:                                               ; preds = %1
  %11 = load ptr, ptr %3, align 8, !tbaa !8
  %12 = getelementptr inbounds nuw %struct.SVG_RendererRec_, ptr %11, i32 0, i32 2
  %13 = load i8, ptr %12, align 1, !tbaa !24
  %14 = zext i8 %13 to i32
  %15 = icmp eq i32 %14, 1
  br i1 %15, label %16, label %23

16:                                               ; preds = %10
  %17 = load ptr, ptr %3, align 8, !tbaa !8
  %18 = getelementptr inbounds nuw %struct.SVG_RendererRec_, ptr %17, i32 0, i32 3
  %19 = getelementptr inbounds nuw %struct.SVG_RendererHooks_, ptr %18, i32 0, i32 1
  %20 = load ptr, ptr %19, align 8, !tbaa !25
  %21 = load ptr, ptr %3, align 8, !tbaa !8
  %22 = getelementptr inbounds nuw %struct.SVG_RendererRec_, ptr %21, i32 0, i32 4
  call void %20(ptr noundef %22)
  br label %23

23:                                               ; preds = %16, %10, %1
  %24 = load ptr, ptr %3, align 8, !tbaa !8
  %25 = getelementptr inbounds nuw %struct.SVG_RendererRec_, ptr %24, i32 0, i32 1
  store i8 0, ptr %25, align 8, !tbaa !12
  call void @llvm.lifetime.end.p0(i64 8, ptr %3) #6
  ret void
}