; Function Attrs: nounwind uwtable
define internal void @ft_svg_done(ptr noundef %0) #1 {
  %2 = getelementptr inbounds nuw i8, ptr %0, i64 128
  %3 = load i8, ptr %2, align 8, !tbaa !3
  %4 = icmp eq i8 %3, 1
  br i1 %4, label %5, label %13

5:                                                ; preds = %1
  %6 = getelementptr inbounds nuw i8, ptr %0, i64 129
  %7 = load i8, ptr %6, align 1, !tbaa !19
  %8 = icmp eq i8 %7, 1
  br i1 %8, label %9, label %13

9:                                                ; preds = %5
  %10 = getelementptr inbounds nuw i8, ptr %0, i64 144
  %11 = load ptr, ptr %10, align 8, !tbaa !20
  %12 = getelementptr inbounds nuw i8, ptr %0, i64 168
  tail call void %11(ptr noundef nonnull %12) #8
  br label %13

13:                                               ; preds = %9, %5, %1
  store i8 0, ptr %2, align 8, !tbaa !3
  ret void
}